; Function Attrs: mustprogress nofree norecurse nosync nounwind willreturn memory(argmem: read) uwtable
define noundef i32 @_ZN8proxygen23StructuredHeadersBuffer17getNumCharsParsedEv(ptr nocapture noundef nonnull readonly align 8 dereferenceable(32) %this) local_unnamed_addr #5 align 2 {
entry:
  %originalContent_ = getelementptr inbounds i8, ptr %this, i64 16
  %0 = load ptr, ptr %originalContent_, align 8
  %1 = load ptr, ptr %this, align 8
  %sub.ptr.lhs.cast.i.i = ptrtoint ptr %1 to i64
  %sub.ptr.rhs.cast.i.i = ptrtoint ptr %0 to i64
  %sub.ptr.sub.i.i = sub i64 %sub.ptr.lhs.cast.i.i, %sub.ptr.rhs.cast.i.i
  %conv = trunc i64 %sub.ptr.sub.i.i to i32
  ret i32 %conv
}